; Function Attrs: mustprogress uwtable
define dso_local void @_ZN26cmExportBuildFileGenerator7ComputeEP16cmLocalGenerator(ptr nocapture noundef nonnull align 8 dereferenceable(440) %0, ptr noundef %1) local_unnamed_addr #3 align 2 {
  %3 = getelementptr inbounds i8, ptr %0, i64 400
  store ptr %1, ptr %3, align 8
  %4 = getelementptr inbounds i8, ptr %0, i64 368
  %5 = load ptr, ptr %4, align 8
  %.not = icmp eq ptr %5, null
  br i1 %.not, label %8, label %6

6:                                                ; preds = %2
  %7 = tail call noundef zeroext i1 @_ZN11cmExportSet7ComputeEP16cmLocalGenerator(ptr noundef nonnull align 8 dereferenceable(132) %5, ptr noundef %1)
  br label %8

8:                                                ; preds = %6, %2
  ret void
}